target datalayout = "e-m:e-p270:32:32-p271:32:32-p272:64:64-i64:64-i128:128-f80:128-n8:16:32:64-S128"
target triple = "x86_64-pc-linux-gnu"

%struct.DdManager = type { %struct.DdNode, ptr, ptr, ptr, ptr, ptr, ptr, ptr, i32, i32, double, double, double, i32, i32, i32, i32, i32, i32, ptr, ptr, %struct.DdSubtable, i32, i32, i32, i32, i32, i32, i32, double, i32, i32, i32, ptr, i64, double, i32, ptr, ptr, ptr, ptr, ptr, ptr, ptr, i32, ptr, ptr, ptr, ptr, ptr, ptr, i32, i32, i32, double, i32, i32, i32, i32, double, double, i32, i32, i32, i32, i32, i32, i32, i32, i32, ptr, ptr, i32, i32, i32, i32, i32, i32, ptr, ptr, ptr, ptr, ptr, ptr, ptr, ptr, i32, i64, i64, i64, i32, i64, i64, double, double, double, double, double, double, i32, ptr, ptr, i64 }
%struct.DdNode = type { i32, i32, ptr, %union.anon, i64 }
%union.anon = type { %struct.DdChildren }
%struct.DdChildren = type { ptr, ptr }
%struct.DdSubtable = type { ptr, i32, i32, i32, i32, i32, i32, i32, i32, i32, i32, i32 }
%struct.DdGen = type { ptr, i32, i32, %union.anon.0, %struct.anon.3, ptr }
%union.anon.0 = type { %struct.anon }
%struct.anon = type { ptr, double }
%struct.anon.3 = type { i32, ptr }

; Function Attrs: nounwind uwtable
define ptr @Cudd_zddFirstPath(ptr noundef %0, ptr noundef %1, ptr noundef %2) #0 {
  %4 = alloca ptr, align 8
  %5 = alloca ptr, align 8
  %6 = alloca ptr, align 8
  %7 = alloca ptr, align 8
  %8 = alloca ptr, align 8
  %9 = alloca ptr, align 8
  %10 = alloca ptr, align 8
  %11 = alloca ptr, align 8
  %12 = alloca i32, align 4
  %13 = alloca i32, align 4
  store ptr %0, ptr %5, align 8
  store ptr %1, ptr %6, align 8
  store ptr %2, ptr %7, align 8
  %14 = load ptr, ptr %5, align 8
  %15 = icmp eq ptr %14, null
  br i1 %15, label %19, label %16

16:                                               ; preds = %3
  %17 = load ptr, ptr %6, align 8
  %18 = icmp eq ptr %17, null
  br i1 %18, label %19, label %20

19:                                               ; preds = %16, %3
  store ptr null, ptr %4, align 8
  br label %337

20:                                               ; preds = %16
  %21 = call noalias ptr @malloc(i64 noundef 56) #4
  store ptr %21, ptr %8, align 8
  %22 = load ptr, ptr %8, align 8
  %23 = icmp eq ptr %22, null
  br i1 %23, label %24, label %27

24:                                               ; preds = %20
  %25 = load ptr, ptr %5, align 8
  %26 = getelementptr inbounds %struct.DdManager, ptr %25, i32 0, i32 86
  store i32 1, ptr %26, align 8
  store ptr null, ptr %4, align 8
  br label %337

27:                                               ; preds = %20
  %28 = load ptr, ptr %5, align 8
  %29 = load ptr, ptr %8, align 8
  %30 = getelementptr inbounds %struct.DdGen, ptr %29, i32 0, i32 0
  store ptr %28, ptr %30, align 8
  %31 = load ptr, ptr %8, align 8
  %32 = getelementptr inbounds %struct.DdGen, ptr %31, i32 0, i32 1
  store i32 3, ptr %32, align 8
  %33 = load ptr, ptr %8, align 8
  %34 = getelementptr inbounds %struct.DdGen, ptr %33, i32 0, i32 2
  store i32 0, ptr %34, align 4
  %35 = load ptr, ptr %8, align 8
  %36 = getelementptr inbounds %struct.DdGen, ptr %35, i32 0, i32 3
  %37 = getelementptr inbounds %struct.anon, ptr %36, i32 0, i32 0
  store ptr null, ptr %37, align 8
  %38 = load ptr, ptr %8, align 8
  %39 = getelementptr inbounds %struct.DdGen, ptr %38, i32 0, i32 3
  %40 = getelementptr inbounds %struct.anon, ptr %39, i32 0, i32 1
  store double 0.000000e+00, ptr %40, align 8
  %41 = load ptr, ptr %8, align 8
  %42 = getelementptr inbounds %struct.DdGen, ptr %41, i32 0, i32 4
  %43 = getelementptr inbounds %struct.anon.3, ptr %42, i32 0, i32 0
  store i32 0, ptr %43, align 8
  %44 = load ptr, ptr %8, align 8
  %45 = getelementptr inbounds %struct.DdGen, ptr %44, i32 0, i32 4
  %46 = getelementptr inbounds %struct.anon.3, ptr %45, i32 0, i32 1
  store ptr null, ptr %46, align 8
  %47 = load ptr, ptr %8, align 8
  %48 = getelementptr inbounds %struct.DdGen, ptr %47, i32 0, i32 5
  store ptr null, ptr %48, align 8
  %49 = load ptr, ptr %5, align 8
  %50 = getelementptr inbounds %struct.DdManager, ptr %49, i32 0, i32 16
  %51 = load i32, ptr %50, align 4
  store i32 %51, ptr %13, align 4
  %52 = load i32, ptr %13, align 4
  %53 = sext i32 %52 to i64
  %54 = mul i64 4, %53
  %55 = call noalias ptr @malloc(i64 noundef %54) #4
  %56 = load ptr, ptr %8, align 8
  %57 = getelementptr inbounds %struct.DdGen, ptr %56, i32 0, i32 3
  %58 = getelementptr inbounds %struct.anon, ptr %57, i32 0, i32 0
  store ptr %55, ptr %58, align 8
  %59 = load ptr, ptr %8, align 8
  %60 = getelementptr inbounds %struct.DdGen, ptr %59, i32 0, i32 3
  %61 = getelementptr inbounds %struct.anon, ptr %60, i32 0, i32 0
  %62 = load ptr, ptr %61, align 8
  %63 = icmp eq ptr %62, null
  br i1 %63, label %64, label %73

64:                                               ; preds = %27
  %65 = load ptr, ptr %5, align 8
  %66 = getelementptr inbounds %struct.DdManager, ptr %65, i32 0, i32 86
  store i32 1, ptr %66, align 8
  %67 = load ptr, ptr %8, align 8
  %68 = icmp ne ptr %67, null
  br i1 %68, label %69, label %71

69:                                               ; preds = %64
  %70 = load ptr, ptr %8, align 8
  call void @free(ptr noundef %70) #5
  store ptr null, ptr %8, align 8
  br label %72

71:                                               ; preds = %64
  br label %72

72:                                               ; preds = %71, %69
  store ptr null, ptr %4, align 8
  br label %337

73:                                               ; preds = %27
  store i32 0, ptr %12, align 4
  br label %74

74:                                               ; preds = %86, %73
  %75 = load i32, ptr %12, align 4
  %76 = load i32, ptr %13, align 4
  %77 = icmp slt i32 %75, %76
  br i1 %77, label %78, label %89

78:                                               ; preds = %74
  %79 = load ptr, ptr %8, align 8
  %80 = getelementptr inbounds %struct.DdGen, ptr %79, i32 0, i32 3
  %81 = getelementptr inbounds %struct.anon, ptr %80, i32 0, i32 0
  %82 = load ptr, ptr %81, align 8
  %83 = load i32, ptr %12, align 4
  %84 = sext i32 %83 to i64
  %85 = getelementptr inbounds i32, ptr %82, i64 %84
  store i32 2, ptr %85, align 4
  br label %86

86:                                               ; preds = %78
  %87 = load i32, ptr %12, align 4
  %88 = add nsw i32 %87, 1
  store i32 %88, ptr %12, align 4
  br label %74, !llvm.loop !9

89:                                               ; preds = %74
  %90 = load i32, ptr %13, align 4
  %91 = add nsw i32 %90, 1
  %92 = sext i32 %91 to i64
  %93 = mul i64 8, %92
  %94 = call noalias ptr @malloc(i64 noundef %93) #4
  %95 = load ptr, ptr %8, align 8
  %96 = getelementptr inbounds %struct.DdGen, ptr %95, i32 0, i32 4
  %97 = getelementptr inbounds %struct.anon.3, ptr %96, i32 0, i32 1
  store ptr %94, ptr %97, align 8
  %98 = load ptr, ptr %8, align 8
  %99 = getelementptr inbounds %struct.DdGen, ptr %98, i32 0, i32 4
  %100 = getelementptr inbounds %struct.anon.3, ptr %99, i32 0, i32 1
  %101 = load ptr, ptr %100, align 8
  %102 = icmp eq ptr %101, null
  br i1 %102, label %103, label %127

103:                                              ; preds = %89
  %104 = load ptr, ptr %5, align 8
  %105 = getelementptr inbounds %struct.DdManager, ptr %104, i32 0, i32 86
  store i32 1, ptr %105, align 8
  %106 = load ptr, ptr %8, align 8
  %107 = getelementptr inbounds %struct.DdGen, ptr %106, i32 0, i32 3
  %108 = getelementptr inbounds %struct.anon, ptr %107, i32 0, i32 0
  %109 = load ptr, ptr %108, align 8
  %110 = icmp ne ptr %109, null
  br i1 %110, label %111, label %119

111:                                              ; preds = %103
  %112 = load ptr, ptr %8, align 8
  %113 = getelementptr inbounds %struct.DdGen, ptr %112, i32 0, i32 3
  %114 = getelementptr inbounds %struct.anon, ptr %113, i32 0, i32 0
  %115 = load ptr, ptr %114, align 8
  call void @free(ptr noundef %115) #5
  %116 = load ptr, ptr %8, align 8
  %117 = getelementptr inbounds %struct.DdGen, ptr %116, i32 0, i32 3
  %118 = getelementptr inbounds %struct.anon, ptr %117, i32 0, i32 0
  store ptr null, ptr %118, align 8
  br label %120

119:                                              ; preds = %103
  br label %120

120:                                              ; preds = %119, %111
  %121 = load ptr, ptr %8, align 8
  %122 = icmp ne ptr %121, null
  br i1 %122, label %123, label %125

123:                                              ; preds = %120
  %124 = load ptr, ptr %8, align 8
  call void @free(ptr noundef %124) #5
  store ptr null, ptr %8, align 8
  br label %126

125:                                              ; preds = %120
  br label %126

126:                                              ; preds = %125, %123
  store ptr null, ptr %4, align 8
  br label %337

127:                                              ; preds = %89
  store i32 0, ptr %12, align 4
  br label %128

128:                                              ; preds = %140, %127
  %129 = load i32, ptr %12, align 4
  %130 = load i32, ptr %13, align 4
  %131 = icmp sle i32 %129, %130
  br i1 %131, label %132, label %143

132:                                              ; preds = %128
  %133 = load ptr, ptr %8, align 8
  %134 = getelementptr inbounds %struct.DdGen, ptr %133, i32 0, i32 4
  %135 = getelementptr inbounds %struct.anon.3, ptr %134, i32 0, i32 1
  %136 = load ptr, ptr %135, align 8
  %137 = load i32, ptr %12, align 4
  %138 = sext i32 %137 to i64
  %139 = getelementptr inbounds ptr, ptr %136, i64 %138
  store ptr null, ptr %139, align 8
  br label %140

140:                                              ; preds = %132
  %141 = load i32, ptr %12, align 4
  %142 = add nsw i32 %141, 1
  store i32 %142, ptr %12, align 4
  br label %128, !llvm.loop !10

143:                                              ; preds = %128
  %144 = load ptr, ptr %6, align 8
  %145 = load ptr, ptr %8, align 8
  %146 = getelementptr inbounds %struct.DdGen, ptr %145, i32 0, i32 4
  %147 = getelementptr inbounds %struct.anon.3, ptr %146, i32 0, i32 1
  %148 = load ptr, ptr %147, align 8
  %149 = load ptr, ptr %8, align 8
  %150 = getelementptr inbounds %struct.DdGen, ptr %149, i32 0, i32 4
  %151 = getelementptr inbounds %struct.anon.3, ptr %150, i32 0, i32 0
  %152 = load i32, ptr %151, align 8
  %153 = sext i32 %152 to i64
  %154 = getelementptr inbounds ptr, ptr %148, i64 %153
  store ptr %144, ptr %154, align 8
  %155 = load ptr, ptr %8, align 8
  %156 = getelementptr inbounds %struct.DdGen, ptr %155, i32 0, i32 4
  %157 = getelementptr inbounds %struct.anon.3, ptr %156, i32 0, i32 0
  %158 = load i32, ptr %157, align 8
  %159 = add nsw i32 %158, 1
  store i32 %159, ptr %157, align 8
  br label %160

160:                                              ; preds = %329, %143
  %161 = load ptr, ptr %8, align 8
  %162 = getelementptr inbounds %struct.DdGen, ptr %161, i32 0, i32 4
  %163 = getelementptr inbounds %struct.anon.3, ptr %162, i32 0, i32 1
  %164 = load ptr, ptr %163, align 8
  %165 = load ptr, ptr %8, align 8
  %166 = getelementptr inbounds %struct.DdGen, ptr %165, i32 0, i32 4
  %167 = getelementptr inbounds %struct.anon.3, ptr %166, i32 0, i32 0
  %168 = load i32, ptr %167, align 8
  %169 = sub nsw i32 %168, 1
  %170 = sext i32 %169 to i64
  %171 = getelementptr inbounds ptr, ptr %164, i64 %170
  %172 = load ptr, ptr %171, align 8
  store ptr %172, ptr %9, align 8
  %173 = load ptr, ptr %9, align 8
  %174 = ptrtoint ptr %173 to i64
  %175 = and i64 %174, -2
  %176 = inttoptr i64 %175 to ptr
  %177 = getelementptr inbounds %struct.DdNode, ptr %176, i32 0, i32 0
  %178 = load i32, ptr %177, align 8
  %179 = icmp eq i32 %178, 2147483647
  br i1 %179, label %219, label %180

180:                                              ; preds = %160
  %181 = load ptr, ptr %8, align 8
  %182 = getelementptr inbounds %struct.DdGen, ptr %181, i32 0, i32 3
  %183 = getelementptr inbounds %struct.anon, ptr %182, i32 0, i32 0
  %184 = load ptr, ptr %183, align 8
  %185 = load ptr, ptr %9, align 8
  %186 = ptrtoint ptr %185 to i64
  %187 = and i64 %186, -2
  %188 = inttoptr i64 %187 to ptr
  %189 = getelementptr inbounds %struct.DdNode, ptr %188, i32 0, i32 0
  %190 = load i32, ptr %189, align 8
  %191 = zext i32 %190 to i64
  %192 = getelementptr inbounds i32, ptr %184, i64 %191
  store i32 0, ptr %192, align 4
  %193 = load ptr, ptr %9, align 8
  %194 = ptrtoint ptr %193 to i64
  %195 = and i64 %194, -2
  %196 = inttoptr i64 %195 to ptr
  %197 = getelementptr inbounds %struct.DdNode, ptr %196, i32 0, i32 3
  %198 = getelementptr inbounds %struct.DdChildren, ptr %197, i32 0, i32 1
  %199 = load ptr, ptr %198, align 8
  store ptr %199, ptr %10, align 8
  %200 = load ptr, ptr %10, align 8
  %201 = ptrtoint ptr %200 to i64
  %202 = xor i64 %201, 1
  %203 = inttoptr i64 %202 to ptr
  %204 = load ptr, ptr %8, align 8
  %205 = getelementptr inbounds %struct.DdGen, ptr %204, i32 0, i32 4
  %206 = getelementptr inbounds %struct.anon.3, ptr %205, i32 0, i32 1
  %207 = load ptr, ptr %206, align 8
  %208 = load ptr, ptr %8, align 8
  %209 = getelementptr inbounds %struct.DdGen, ptr %208, i32 0, i32 4
  %210 = getelementptr inbounds %struct.anon.3, ptr %209, i32 0, i32 0
  %211 = load i32, ptr %210, align 8
  %212 = sext i32 %211 to i64
  %213 = getelementptr inbounds ptr, ptr %207, i64 %212
  store ptr %203, ptr %213, align 8
  %214 = load ptr, ptr %8, align 8
  %215 = getelementptr inbounds %struct.DdGen, ptr %214, i32 0, i32 4
  %216 = getelementptr inbounds %struct.anon.3, ptr %215, i32 0, i32 0
  %217 = load i32, ptr %216, align 8
  %218 = add nsw i32 %217, 1
  store i32 %218, ptr %216, align 8
  br label %329

219:                                              ; preds = %160
  %220 = load ptr, ptr %9, align 8
  %221 = ptrtoint ptr %220 to i64
  %222 = and i64 %221, -2
  %223 = inttoptr i64 %222 to ptr
  %224 = load ptr, ptr %5, align 8
  %225 = getelementptr inbounds %struct.DdManager, ptr %224, i32 0, i32 2
  %226 = load ptr, ptr %225, align 8
  %227 = icmp eq ptr %223, %226
  br i1 %227, label %228, label %316

228:                                              ; preds = %219
  br label %229

229:                                              ; preds = %288, %228
  %230 = load ptr, ptr %8, align 8
  %231 = getelementptr inbounds %struct.DdGen, ptr %230, i32 0, i32 4
  %232 = getelementptr inbounds %struct.anon.3, ptr %231, i32 0, i32 0
  %233 = load i32, ptr %232, align 8
  %234 = icmp eq i32 %233, 1
  br i1 %234, label %235, label %243

235:                                              ; preds = %229
  %236 = load ptr, ptr %8, align 8
  %237 = getelementptr inbounds %struct.DdGen, ptr %236, i32 0, i32 2
  store i32 0, ptr %237, align 4
  %238 = load ptr, ptr %8, align 8
  %239 = getelementptr inbounds %struct.DdGen, ptr %238, i32 0, i32 4
  %240 = getelementptr inbounds %struct.anon.3, ptr %239, i32 0, i32 0
  %241 = load i32, ptr %240, align 8
  %242 = add nsw i32 %241, -1
  store i32 %242, ptr %240, align 8
  br label %330

243:                                              ; preds = %229
  %244 = load ptr, ptr %8, align 8
  %245 = getelementptr inbounds %struct.DdGen, ptr %244, i32 0, i32 4
  %246 = getelementptr inbounds %struct.anon.3, ptr %245, i32 0, i32 1
  %247 = load ptr, ptr %246, align 8
  %248 = load ptr, ptr %8, align 8
  %249 = getelementptr inbounds %struct.DdGen, ptr %248, i32 0, i32 4
  %250 = getelementptr inbounds %struct.anon.3, ptr %249, i32 0, i32 0
  %251 = load i32, ptr %250, align 8
  %252 = sub nsw i32 %251, 2
  %253 = sext i32 %252 to i64
  %254 = getelementptr inbounds ptr, ptr %247, i64 %253
  %255 = load ptr, ptr %254, align 8
  %256 = ptrtoint ptr %255 to i64
  %257 = and i64 %256, -2
  %258 = inttoptr i64 %257 to ptr
  store ptr %258, ptr %11, align 8
  %259 = load ptr, ptr %11, align 8
  %260 = getelementptr inbounds %struct.DdNode, ptr %259, i32 0, i32 3
  %261 = getelementptr inbounds %struct.DdChildren, ptr %260, i32 0, i32 0
  %262 = load ptr, ptr %261, align 8
  store ptr %262, ptr %10, align 8
  %263 = load ptr, ptr %10, align 8
  %264 = load ptr, ptr %9, align 8
  %265 = icmp ne ptr %263, %264
  br i1 %265, label %266, label %288

266:                                              ; preds = %243
  %267 = load ptr, ptr %8, align 8
  %268 = getelementptr inbounds %struct.DdGen, ptr %267, i32 0, i32 3
  %269 = getelementptr inbounds %struct.anon, ptr %268, i32 0, i32 0
  %270 = load ptr, ptr %269, align 8
  %271 = load ptr, ptr %11, align 8
  %272 = getelementptr inbounds %struct.DdNode, ptr %271, i32 0, i32 0
  %273 = load i32, ptr %272, align 8
  %274 = zext i32 %273 to i64
  %275 = getelementptr inbounds i32, ptr %270, i64 %274
  store i32 1, ptr %275, align 4
  %276 = load ptr, ptr %10, align 8
  %277 = load ptr, ptr %8, align 8
  %278 = getelementptr inbounds %struct.DdGen, ptr %277, i32 0, i32 4
  %279 = getelementptr inbounds %struct.anon.3, ptr %278, i32 0, i32 1
  %280 = load ptr, ptr %279, align 8
  %281 = load ptr, ptr %8, align 8
  %282 = getelementptr inbounds %struct.DdGen, ptr %281, i32 0, i32 4
  %283 = getelementptr inbounds %struct.anon.3, ptr %282, i32 0, i32 0
  %284 = load i32, ptr %283, align 8
  %285 = sub nsw i32 %284, 1
  %286 = sext i32 %285 to i64
  %287 = getelementptr inbounds ptr, ptr %280, i64 %286
  store ptr %276, ptr %287, align 8
  br label %315

288:                                              ; preds = %243
  %289 = load ptr, ptr %8, align 8
  %290 = getelementptr inbounds %struct.DdGen, ptr %289, i32 0, i32 3
  %291 = getelementptr inbounds %struct.anon, ptr %290, i32 0, i32 0
  %292 = load ptr, ptr %291, align 8
  %293 = load ptr, ptr %11, align 8
  %294 = getelementptr inbounds %struct.DdNode, ptr %293, i32 0, i32 0
  %295 = load i32, ptr %294, align 8
  %296 = zext i32 %295 to i64
  %297 = getelementptr inbounds i32, ptr %292, i64 %296
  store i32 2, ptr %297, align 4
  %298 = load ptr, ptr %8, align 8
  %299 = getelementptr inbounds %struct.DdGen, ptr %298, i32 0, i32 4
  %300 = getelementptr inbounds %struct.anon.3, ptr %299, i32 0, i32 0
  %301 = load i32, ptr %300, align 8
  %302 = add nsw i32 %301, -1
  store i32 %302, ptr %300, align 8
  %303 = load ptr, ptr %8, align 8
  %304 = getelementptr inbounds %struct.DdGen, ptr %303, i32 0, i32 4
  %305 = getelementptr inbounds %struct.anon.3, ptr %304, i32 0, i32 1
  %306 = load ptr, ptr %305, align 8
  %307 = load ptr, ptr %8, align 8
  %308 = getelementptr inbounds %struct.DdGen, ptr %307, i32 0, i32 4
  %309 = getelementptr inbounds %struct.anon.3, ptr %308, i32 0, i32 0
  %310 = load i32, ptr %309, align 8
  %311 = sub nsw i32 %310, 1
  %312 = sext i32 %311 to i64
  %313 = getelementptr inbounds ptr, ptr %306, i64 %312
  %314 = load ptr, ptr %313, align 8
  store ptr %314, ptr %9, align 8
  br label %229

315:                                              ; preds = %266
  br label %328

316:                                              ; preds = %219
  %317 = load ptr, ptr %8, align 8
  %318 = getelementptr inbounds %struct.DdGen, ptr %317, i32 0, i32 2
  store i32 1, ptr %318, align 4
  %319 = load ptr, ptr %9, align 8
  %320 = ptrtoint ptr %319 to i64
  %321 = and i64 %320, -2
  %322 = inttoptr i64 %321 to ptr
  %323 = getelementptr inbounds %struct.DdNode, ptr %322, i32 0, i32 3
  %324 = load double, ptr %323, align 8
  %325 = load ptr, ptr %8, align 8
  %326 = getelementptr inbounds %struct.DdGen, ptr %325, i32 0, i32 3
  %327 = getelementptr inbounds %struct.anon, ptr %326, i32 0, i32 1
  store double %324, ptr %327, align 8
  br label %330

328:                                              ; preds = %315
  br label %329

329:                                              ; preds = %328, %180
  br label %160

330:                                              ; preds = %316, %235
  %331 = load ptr, ptr %8, align 8
  %332 = getelementptr inbounds %struct.DdGen, ptr %331, i32 0, i32 3
  %333 = getelementptr inbounds %struct.anon, ptr %332, i32 0, i32 0
  %334 = load ptr, ptr %333, align 8
  %335 = load ptr, ptr %7, align 8
  store ptr %334, ptr %335, align 8
  %336 = load ptr, ptr %8, align 8
  store ptr %336, ptr %4, align 8
  br label %337

337:                                              ; preds = %330, %126, %72, %24, %19
  %338 = load ptr, ptr %4, align 8
  ret ptr %338
}