; Function Attrs: nounwind uwtable
define noalias noundef ptr @Cudd_zddFirstPath(ptr noundef %0, ptr noundef %1, ptr noundef writeonly captures(none) %2) local_unnamed_addr #0 {
  %4 = icmp eq ptr %0, null
  %5 = icmp eq ptr %1, null
  %or.cond = or i1 %4, %5
  br i1 %or.cond, label %89, label %6

6:                                                ; preds = %3
  %7 = tail call noalias dereferenceable_or_null(56) ptr @malloc(i64 noundef 56) #10
  %8 = icmp eq ptr %7, null
  br i1 %8, label %9, label %11

9:                                                ; preds = %6
  %10 = getelementptr inbounds nuw i8, ptr %0, i64 624
  store i32 1, ptr %10, align 8
  br label %89

11:                                               ; preds = %6
  store ptr %0, ptr %7, align 8
  %12 = getelementptr inbounds nuw i8, ptr %7, i64 8
  store i32 3, ptr %12, align 8
  %13 = getelementptr inbounds nuw i8, ptr %7, i64 12
  %14 = getelementptr inbounds nuw i8, ptr %7, i64 16
  %15 = getelementptr inbounds nuw i8, ptr %7, i64 24
  %16 = getelementptr inbounds nuw i8, ptr %7, i64 32
  %17 = getelementptr inbounds nuw i8, ptr %7, i64 40
  %18 = getelementptr inbounds nuw i8, ptr %0, i64 140
  tail call void @llvm.memset.p0.i64(ptr noundef nonnull align 4 dereferenceable(24) %13, i8 0, i64 24, i1 false)
  tail call void @llvm.memset.p0.i64(ptr noundef nonnull align 8 dereferenceable(16) %17, i8 0, i64 16, i1 false)
  %19 = load i32, ptr %18, align 4
  %20 = sext i32 %19 to i64
  %21 = shl nsw i64 %20, 2
  %22 = tail call noalias ptr @malloc(i64 noundef %21) #10
  store ptr %22, ptr %14, align 8
  %23 = icmp eq ptr %22, null
  br i1 %23, label %25, label %.preheader93

.preheader93:                                     ; preds = %11
  %24 = icmp sgt i32 %19, 0
  br i1 %24, label %.lr.ph.preheader, label %._crit_edge

.lr.ph.preheader:                                 ; preds = %.preheader93
  %wide.trip.count = zext nneg i32 %19 to i64
  br label %.lr.ph

25:                                               ; preds = %11
  %26 = getelementptr inbounds nuw i8, ptr %0, i64 624
  store i32 1, ptr %26, align 8
  tail call void @free(ptr noundef nonnull %7) #11
  br label %89

.lr.ph:                                           ; preds = %.lr.ph.preheader, %.lr.ph
  %indvars.iv = phi i64 [ 0, %.lr.ph.preheader ], [ %indvars.iv.next, %.lr.ph ]
  %27 = getelementptr inbounds nuw i32, ptr %22, i64 %indvars.iv
  store i32 2, ptr %27, align 4
  %indvars.iv.next = add nuw nsw i64 %indvars.iv, 1
  %exitcond.not = icmp eq i64 %indvars.iv.next, %wide.trip.count
  br i1 %exitcond.not, label %._crit_edge, label %.lr.ph, !llvm.loop !9

._crit_edge:                                      ; preds = %.lr.ph, %.preheader93
  %28 = add i32 %19, 1
  %29 = sext i32 %28 to i64
  %30 = shl nsw i64 %29, 3
  %31 = tail call noalias ptr @malloc(i64 noundef %30) #10
  store ptr %31, ptr %17, align 8
  %32 = icmp eq ptr %31, null
  br i1 %32, label %35, label %.preheader

.preheader:                                       ; preds = %._crit_edge
  %.not101 = icmp slt i32 %19, 0
  br i1 %.not101, label %._crit_edge104, label %.lr.ph103.preheader

.lr.ph103.preheader:                              ; preds = %.preheader
  %33 = zext i32 %28 to i64
  %34 = shl nuw nsw i64 %33, 3
  tail call void @llvm.memset.p0.i64(ptr nonnull align 8 %31, i8 0, i64 %34, i1 false)
  br label %._crit_edge104

35:                                               ; preds = %._crit_edge
  %36 = getelementptr inbounds nuw i8, ptr %0, i64 624
  store i32 1, ptr %36, align 8
  tail call void @free(ptr noundef nonnull %22) #11
  tail call void @free(ptr noundef nonnull %7) #11
  br label %89

._crit_edge104:                                   ; preds = %.lr.ph103.preheader, %.preheader
  store ptr %1, ptr %31, align 8
  %37 = getelementptr inbounds nuw i8, ptr %0, i64 48
  br label %38

38:                                               ; preds = %.backedge, %._crit_edge104
  %.pr111 = phi i32 [ 1, %._crit_edge104 ], [ %.pr111.be, %.backedge ]
  %39 = sext i32 %.pr111 to i64
  %40 = getelementptr ptr, ptr %31, i64 %39
  %41 = getelementptr i8, ptr %40, i64 -8
  %42 = load ptr, ptr %41, align 8
  %43 = ptrtoint ptr %42 to i64
  %44 = and i64 %43, -2
  %45 = inttoptr i64 %44 to ptr
  %46 = load i32, ptr %45, align 8
  %47 = icmp eq i32 %46, 2147483647
  br i1 %47, label %58, label %48

48:                                               ; preds = %38
  %49 = load ptr, ptr %14, align 8
  %50 = zext i32 %46 to i64
  %51 = getelementptr inbounds nuw i32, ptr %49, i64 %50
  store i32 0, ptr %51, align 4
  %52 = getelementptr inbounds nuw i8, ptr %45, i64 24
  %53 = load ptr, ptr %52, align 8
  %54 = ptrtoint ptr %53 to i64
  %55 = xor i64 %54, 1
  %56 = inttoptr i64 %55 to ptr
  store ptr %56, ptr %40, align 8
  %57 = add nsw i32 %.pr111, 1
  br label %.backedge

58:                                               ; preds = %38
  %59 = load ptr, ptr %37, align 8
  %60 = icmp eq ptr %59, %45
  br i1 %60, label %thread-pre-split, label %84

thread-pre-split:                                 ; preds = %58
  %61 = icmp eq i32 %.pr111, 1
  br i1 %61, label %thread-pre-split._crit_edge, label %.lr.ph106

thread-pre-split._crit_edge:                      ; preds = %thread-pre-split, %77
  store i32 0, ptr %13, align 4
  store i32 0, ptr %16, align 8
  br label %87

.lr.ph106:                                        ; preds = %thread-pre-split, %77
  %indvars.iv132 = phi i64 [ %indvars.iv.next133, %77 ], [ %39, %thread-pre-split ]
  %.081105 = phi ptr [ %82, %77 ], [ %42, %thread-pre-split ]
  %62 = getelementptr ptr, ptr %31, i64 %indvars.iv132
  %63 = getelementptr i8, ptr %62, i64 -16
  %64 = load ptr, ptr %63, align 8
  %65 = ptrtoint ptr %64 to i64
  %66 = and i64 %65, -2
  %67 = inttoptr i64 %66 to ptr
  %68 = getelementptr inbounds nuw i8, ptr %67, i64 16
  %69 = load ptr, ptr %68, align 8
  %.not91 = icmp eq ptr %69, %.081105
  br i1 %.not91, label %77, label %70

70:                                               ; preds = %.lr.ph106
  %71 = trunc nsw i64 %indvars.iv132 to i32
  %72 = load ptr, ptr %14, align 8
  %73 = load i32, ptr %67, align 8
  %74 = zext i32 %73 to i64
  %75 = getelementptr inbounds nuw i32, ptr %72, i64 %74
  store i32 1, ptr %75, align 4
  %76 = getelementptr i8, ptr %62, i64 -8
  store ptr %69, ptr %76, align 8
  br label %.backedge

.backedge:                                        ; preds = %70, %48
  %.pr111.be = phi i32 [ %71, %70 ], [ %57, %48 ]
  br label %38

77:                                               ; preds = %.lr.ph106
  %78 = load ptr, ptr %14, align 8
  %79 = load i32, ptr %67, align 8
  %80 = zext i32 %79 to i64
  %81 = getelementptr inbounds nuw i32, ptr %78, i64 %80
  store i32 2, ptr %81, align 4
  %indvars.iv.next133 = add nsw i64 %indvars.iv132, -1
  %82 = load ptr, ptr %63, align 8
  %83 = icmp eq i64 %indvars.iv.next133, 1
  br i1 %83, label %thread-pre-split._crit_edge, label %.lr.ph106

84:                                               ; preds = %58
  store i32 %.pr111, ptr %16, align 8
  store i32 1, ptr %13, align 4
  %85 = getelementptr inbounds nuw i8, ptr %45, i64 16
  %86 = load double, ptr %85, align 8
  store double %86, ptr %15, align 8
  br label %87

87:                                               ; preds = %84, %thread-pre-split._crit_edge
  %88 = load ptr, ptr %14, align 8
  store ptr %88, ptr %2, align 8
  br label %89

89:                                               ; preds = %3, %87, %35, %25, %9
  %.0 = phi ptr [ null, %9 ], [ null, %25 ], [ null, %35 ], [ %7, %87 ], [ null, %3 ]
  ret ptr %.0
}